Certificate:
    Data:
        Version: 3 (0x2)
        Serial Number: 6 (0x6)
        Signature Algorithm: sha256WithRSAEncryption
        Issuer: C=CN, ST=GUANGDONG, O=Internet Widgits Pty Ltd, CN=pixiv
        Validity
            Not Before: Feb  5 09:57:25 2019 GMT
            Not After : Jan 12 09:57:25 2119 GMT
        Subject: C=CN, ST=GUANGDONG, O=Internet Widgits Pty Ltd, CN=pixiv
        Subject Public Key Info:
            Public Key Algorithm: rsaEncryption
                RSA Public-Key: (2048 bit)
                Modulus:
                    00:f9:15:7c:f4:ae:64:a3:30:79:8d:7a:58:7d:88:
                    23:9d:ac:f8:b3:82:cf:ed:da:72:0e:30:d9:42:14:
                    2c:eb:8c:7c:15:cd:be:d5:da:78:06:86:e9:44:3a:
                    05:20:46:7a:4a:12:41:28:ef:f9:a3:c8:18:df:72:
                    a2:65:d2:91:a4:ab:90:6b:4b:36:e7:4b:84:aa:19:
                    a8:89:d5:75:b2:65:66:69:e1:5e:73:9b:be:78:99:
                    9a:5a:38:d9:eb:8e:dd:cd:58:6b:4d:75:c5:a3:df:
                    5a:b0:99:bf:65:4c:18:2c:fb:37:0d:05:2a:41:51:
                    8d:e2:9d:df:ee:96:db:7c:1b:42:8f:d1:b2:5f:ce:
                    c1:f2:e6:45:f7:73:8d:f2:27:bc:14:d9:4a:ee:15:
                    f2:85:25:30:c4:67:8b:dc:16:de:ab:b2:f2:a9:17:
                    48:f7:14:56:e2:4d:47:18:ac:42:38:02:76:57:fc:
                    4a:5f:5d:de:44:64:e1:1a:e6:93:28:bf:44:3a:49:
                    27:ad:6c:93:bc:31:9a:73:fc:c8:c8:a4:38:2b:3e:
                    b2:d7:d9:2d:64:f1:e6:1d:9e:3b:da:a5:d4:0e:ec:
                    66:65:83:9f:a2:b7:ef:18:e4:92:3a:24:f9:06:bd:
                    3c:46:bf:d0:73:eb:99:2e:b9:77:03:5f:e6:48:e2:
                    9b:d9
                Exponent: 65537 (0x10001)
        X509v3 extensions:
            X509v3 Basic Constraints: 
                CA:FALSE
            X509v3 Key Usage: 
                Digital Signature, Non Repudiation, Key Encipherment
            X509v3 Subject Alternative Name: 
                DNS:pixiv.net, DNS:*.pixiv.net, DNS:pixiv.org, DNS:*.pixiv.org, DNS:pximg.net, DNS:*.pximg.net
    Signature Algorithm: sha256WithRSAEncryption
         a9:75:09:0c:fd:d2:a6:bf:76:6e:83:ce:47:1f:04:ff:18:e2:
         2d:f4:d0:11:10:f2:5e:a9:7a:20:a9:aa:44:6e:80:60:34:85:
         ec:93:b9:0d:93:21:49:99:d9:b5:d4:5c:22:ab:b0:ea:ad:b2:
         b8:2d:f5:ed:fc:c6:e9:67:52:00:39:ff:cb:1a:50:b5:aa:56:
         97:62:d0:3f:97:8e:98:52:f3:a0:cd:b7:7f:ff:6b:dc:5c:a1:
         b2:4c:30:55:fb:66:b0:9b:80:a6:02:df:e5:1e:0c:25:d7:c5:
         ca:24:2b:40:94:4e:84:10:b3:89:c8:e9:49:b2:b7:9e:03:6d:
         d3:22:c8:42:2e:1f:f1:c1:1d:ec:87:c2:59:a2:bb:59:e2:44:
         fe:bf:27:56:de:7b:83:40:0a:12:37:92:3e:13:11:dd:cf:70:
         b4:5c:df:fe:ae:20:fd:6d:55:fd:02:bd:ae:5a:1f:30:00:32:
         8d:40:99:48:53:bc:62:26:db:ce:73:e3:89:7b:a8:ad:40:c9:
         54:27:06:58:76:6d:ac:79:a3:03:db:87:1b:c1:c9:ad:0c:8a:
         68:99:ff:12:6f:10:0a:73:f3:66:a0:7f:6f:05:c3:ca:65:e5:
         bb:75:be:36:04:88:eb:a8:8b:f8:cc:56:70:78:91:35:63:5e:
         a2:5d:5d:49
-----BEGIN CERTIFICATE-----
MIIDkjCCAnqgAwIBAgIBBjANBgkqhkiG9w0BAQsFADBUMQswCQYDVQQGEwJDTjES
MBAGA1UECAwJR1VBTkdET05HMSEwHwYDVQQKDBhJbnRlcm5ldCBXaWRnaXRzIFB0
eSBMdGQxDjAMBgNVBAMMBXBpeGl2MCAXDTE5MDIwNTA5NTcyNVoYDzIxMTkwMTEy
MDk1NzI1WjBUMQswCQYDVQQGEwJDTjESMBAGA1UECAwJR1VBTkdET05HMSEwHwYD
VQQKDBhJbnRlcm5ldCBXaWRnaXRzIFB0eSBMdGQxDjAMBgNVBAMMBXBpeGl2MIIB
IjANBgkqhkiG9w0BAQEFAAOCAQ8AMIIBCgKCAQEA+RV89K5kozB5jXpYfYgjnaz4
s4LP7dpyDjDZQhQs64x8Fc2+1dp4BobpRDoFIEZ6ShJBKO/5o8gY33KiZdKRpKuQ
a0s250uEqhmoidV1smVmaeFec5u+eJmaWjjZ647dzVhrTXXFo99asJm/ZUwYLPs3
DQUqQVGN4p3f7pbbfBtCj9GyX87B8uZF93ON8ie8FNlK7hXyhSUwxGeL3Bbeq7Ly
qRdI9xRW4k1HGKxCOAJ2V/xKX13eRGThGuaTKL9EOkknrWyTvDGac/zIyKQ4Kz6y
19ktZPHmHZ472qXUDuxmZYOforfvGOSSOiT5Br08Rr/Qc+uZLrl3A1/mSOKb2QID
AQABo20wazAJBgNVHRMEAjAAMAsGA1UdDwQEAwIF4DBRBgNVHREESjBIgglwaXhp
di5uZXSCCyoucGl4aXYubmV0gglwaXhpdi5vcmeCCyoucGl4aXYub3JngglweGlt
Zy5uZXSCCyoucHhpbWcubmV0MA0GCSqGSIb3DQEBCwUAA4IBAQCpdQkM/dKmv3Zu
g85HHwT/GOIt9NAREPJeqXogqapEboBgNIXsk7kNkyFJmdm11Fwiq7DqrbK4LfXt
/MbpZ1IAOf/LGlC1qlaXYtA/l46YUvOgzbd//2vcXKGyTDBV+2awm4CmAt/lHgwl
18XKJCtAlE6EELOJyOlJsreeA23TIshCLh/xwR3sh8JZortZ4kT+vydW3nuDQAoS
N5I+ExHdz3C0XN/+riD9bVX9Ar2uWh8wADKNQJlIU7xiJtvOc+OJe6itQMlUJwZY
dm2seaMD24cbwcmtDIpomf8SbxAKc/NmoH9vBcPKZeW7db42BIjrqIv4zFZweJE1
Y16iXV1J
-----END CERTIFICATE-----
